target datalayout = "e-m:e-p270:32:32-p271:32:32-p272:64:64-i64:64-i128:128-f80:128-n8:16:32:64-S128"
target triple = "x86_64-unknown-linux-gnu"

%"class.std::__shared_count" = type { ptr }
%"class.std::shared_ptr.34" = type { %"class.std::__shared_ptr.35" }
%"class.std::__shared_ptr.35" = type { ptr, %"class.std::__shared_count" }
%"struct.arrow::compute::ExecValue" = type { %"struct.arrow::ArraySpan", ptr }
%"struct.arrow::ArraySpan" = type { ptr, i64, i64, i64, [3 x %"struct.arrow::BufferSpan"], %"class.std::vector.104" }
%"struct.arrow::BufferSpan" = type { ptr, i64, ptr }
%"class.std::vector.104" = type { %"struct.std::_Vector_base.105" }
%"struct.std::_Vector_base.105" = type { %"struct.std::_Vector_base<arrow::ArraySpan, std::allocator<arrow::ArraySpan>>::_Vector_impl" }
%"struct.std::_Vector_base<arrow::ArraySpan, std::allocator<arrow::ArraySpan>>::_Vector_impl" = type { %"struct.std::_Vector_base<arrow::ArraySpan, std::allocator<arrow::ArraySpan>>::_Vector_impl_data" }
%"struct.std::_Vector_base<arrow::ArraySpan, std::allocator<arrow::ArraySpan>>::_Vector_impl_data" = type { ptr, ptr, ptr }
%"class.arrow::DataType" = type { %"class.arrow::detail::Fingerprintable", %"class.std::enable_shared_from_this.109", i32, %"class.std::vector.114" }
%"class.arrow::detail::Fingerprintable" = type { ptr, %"struct.std::atomic.84", %"struct.std::atomic.84" }
%"struct.std::atomic.84" = type { %"struct.std::__atomic_base.85" }
%"struct.std::__atomic_base.85" = type { ptr }
%"class.std::enable_shared_from_this.109" = type { %"class.std::weak_ptr.110" }
%"class.std::weak_ptr.110" = type { %"class.std::__weak_ptr.111" }
%"class.std::__weak_ptr.111" = type { ptr, %"class.std::__weak_count" }
%"class.std::__weak_count" = type { ptr }
%"class.std::vector.114" = type { %"struct.std::_Vector_base.115" }
%"struct.std::_Vector_base.115" = type { %"struct.std::_Vector_base<std::shared_ptr<arrow::Field>, std::allocator<std::shared_ptr<arrow::Field>>>::_Vector_impl" }
%"struct.std::_Vector_base<std::shared_ptr<arrow::Field>, std::allocator<std::shared_ptr<arrow::Field>>>::_Vector_impl" = type { %"struct.std::_Vector_base<std::shared_ptr<arrow::Field>, std::allocator<std::shared_ptr<arrow::Field>>>::_Vector_impl_data" }
%"struct.std::_Vector_base<std::shared_ptr<arrow::Field>, std::allocator<std::shared_ptr<arrow::Field>>>::_Vector_impl_data" = type { ptr, ptr, ptr }
%"struct.arrow::Scalar" = type <{ ptr, %"class.std::enable_shared_from_this", %"class.std::shared_ptr.34", i8, [7 x i8] }>
%"class.std::enable_shared_from_this" = type { %"class.std::weak_ptr" }
%"class.std::weak_ptr" = type { %"class.std::__weak_ptr" }
%"class.std::__weak_ptr" = type { ptr, %"class.std::__weak_count" }

; Function Attrs: mustprogress nounwind uwtable
define linkonce_odr noundef ptr @_ZNKSt12__shared_ptrIN5arrow8DataTypeELN9__gnu_cxx12_Lock_policyE2EE3getEv(ptr noundef nonnull align 8 dereferenceable(16) %this) #3 comdat align 2 {
entry:
  %this.addr = alloca ptr, align 8
  store ptr %this, ptr %this.addr, align 8
  %this1 = load ptr, ptr %this.addr, align 8
  %_M_ptr = getelementptr inbounds %"class.std::__shared_ptr.35", ptr %this1, i32 0, i32 0
  %0 = load ptr, ptr %_M_ptr, align 8
  ret ptr %0
}

; Function Attrs: mustprogress nounwind uwtable
define linkonce_odr noundef zeroext i1 @_ZNK5arrow7compute9ExecValue8is_arrayEv(ptr noundef nonnull align 8 dereferenceable(136) %this) #3 comdat align 2 {
entry:
  %this.addr = alloca ptr, align 8
  store ptr %this, ptr %this.addr, align 8
  %this1 = load ptr, ptr %this.addr, align 8
  %scalar = getelementptr inbounds %"struct.arrow::compute::ExecValue", ptr %this1, i32 0, i32 1
  %0 = load ptr, ptr %scalar, align 8
  %cmp = icmp eq ptr %0, null
  ret i1 %cmp
}

; Function Attrs: mustprogress uwtable
define linkonce_odr noundef zeroext i1 @_ZNK5arrow7compute9ExecValue9is_scalarEv(ptr noundef nonnull align 8 dereferenceable(136) %this) #0 comdat align 2 {
entry:
  %this.addr = alloca ptr, align 8
  store ptr %this, ptr %this.addr, align 8
  %this1 = load ptr, ptr %this.addr, align 8
  %call = call noundef zeroext i1 @_ZNK5arrow7compute9ExecValue8is_arrayEv(ptr noundef nonnull align 8 dereferenceable(136) %this1)
  %lnot = xor i1 %call, true
  ret i1 %lnot
}

; Function Attrs: mustprogress nounwind uwtable
define linkonce_odr noundef zeroext i1 @_ZN5arrow8internal17HasValidityBitmapENS_4Type4typeE(i32 noundef %id) #3 comdat {
entry:
  %retval = alloca i1, align 1
  %id.addr = alloca i32, align 4
  store i32 %id, ptr %id.addr, align 4
  %0 = load i32, ptr %id.addr, align 4
  switch i32 %0, label %sw.default [
    i32 0, label %sw.bb
    i32 28, label %sw.bb
    i32 27, label %sw.bb
    i32 38, label %sw.bb
  ]

sw.bb:                                            ; preds = %entry, %entry, %entry, %entry
  store i1 false, ptr %retval, align 1
  br label %return

sw.default:                                       ; preds = %entry
  store i1 true, ptr %retval, align 1
  br label %return

return:                                           ; preds = %sw.default, %sw.bb
  %1 = load i1, ptr %retval, align 1
  ret i1 %1
}

; Function Attrs: mustprogress nounwind uwtable
define linkonce_odr noundef i32 @_ZNK5arrow8DataType2idEv(ptr noundef nonnull align 8 dereferenceable(72) %this) #3 comdat align 2 {
entry:
  %this.addr = alloca ptr, align 8
  store ptr %this, ptr %this.addr, align 8
  %this1 = load ptr, ptr %this.addr, align 8
  %id_ = getelementptr inbounds %"class.arrow::DataType", ptr %this1, i32 0, i32 2
  %0 = load i32, ptr %id_, align 8
  ret i32 %0
}

; Function Attrs: mustprogress uwtable
define linkonce_odr noundef ptr @_ZNK5arrow7compute9ExecValue4typeEv(ptr noundef nonnull align 8 dereferenceable(136) %this) #0 comdat align 2 {
entry:
  %retval = alloca ptr, align 8
  %this.addr = alloca ptr, align 8
  store ptr %this, ptr %this.addr, align 8
  %this1 = load ptr, ptr %this.addr, align 8
  %call = call noundef zeroext i1 @_ZNK5arrow7compute9ExecValue8is_arrayEv(ptr noundef nonnull align 8 dereferenceable(136) %this1)
  br i1 %call, label %if.then, label %if.else

if.then:                                          ; preds = %entry
  %array = getelementptr inbounds %"struct.arrow::compute::ExecValue", ptr %this1, i32 0, i32 0
  %type = getelementptr inbounds %"struct.arrow::ArraySpan", ptr %array, i32 0, i32 0
  %0 = load ptr, ptr %type, align 8
  store ptr %0, ptr %retval, align 8
  br label %return

if.else:                                          ; preds = %entry
  %scalar = getelementptr inbounds %"struct.arrow::compute::ExecValue", ptr %this1, i32 0, i32 1
  %1 = load ptr, ptr %scalar, align 8
  %type2 = getelementptr inbounds %"struct.arrow::Scalar", ptr %1, i32 0, i32 2
  %call3 = call noundef ptr @_ZNKSt12__shared_ptrIN5arrow8DataTypeELN9__gnu_cxx12_Lock_policyE2EE3getEv(ptr noundef nonnull align 8 dereferenceable(16) %type2) #1
  store ptr %call3, ptr %retval, align 8
  br label %return

return:                                           ; preds = %if.else, %if.then
  %2 = load ptr, ptr %retval, align 8
  ret ptr %2
}

; Function Attrs: mustprogress uwtable
define internal noundef i32 @_ZN5arrow7compute6detail12_GLOBAL__N_118NullGeneralization3GetERKNS0_9ExecValueE(ptr noundef nonnull align 8 dereferenceable(136) %value) #0 align 2 {
entry:
  %retval = alloca i32, align 4
  %value.addr = alloca ptr, align 8
  %dtype_id = alloca i32, align 4
  %arr = alloca ptr, align 8
  store ptr %value, ptr %value.addr, align 8
  %0 = load ptr, ptr %value.addr, align 8
  %call = call noundef ptr @_ZNK5arrow7compute9ExecValue4typeEv(ptr noundef nonnull align 8 dereferenceable(136) %0)
  %call1 = call noundef i32 @_ZNK5arrow8DataType2idEv(ptr noundef nonnull align 8 dereferenceable(72) %call)
  store i32 %call1, ptr %dtype_id, align 4
  %1 = load i32, ptr %dtype_id, align 4
  %cmp = icmp eq i32 %1, 0
  br i1 %cmp, label %if.then, label %if.end

if.then:                                          ; preds = %entry
  store i32 2, ptr %retval, align 4
  br label %return

if.end:                                           ; preds = %entry
  %2 = load i32, ptr %dtype_id, align 4
  %call2 = call noundef zeroext i1 @_ZN5arrow8internal17HasValidityBitmapENS_4Type4typeE(i32 noundef %2)
  br i1 %call2, label %if.end4, label %if.then3

if.then3:                                         ; preds = %if.end
  store i32 1, ptr %retval, align 4
  br label %return

if.end4:                                          ; preds = %if.end
  %3 = load ptr, ptr %value.addr, align 8
  %call5 = call noundef zeroext i1 @_ZNK5arrow7compute9ExecValue9is_scalarEv(ptr noundef nonnull align 8 dereferenceable(136) %3)
  br i1 %call5, label %if.then6, label %if.else

if.then6:                                         ; preds = %if.end4
  %4 = load ptr, ptr %value.addr, align 8
  %scalar = getelementptr inbounds %"struct.arrow::compute::ExecValue", ptr %4, i32 0, i32 1
  %5 = load ptr, ptr %scalar, align 8
  %is_valid = getelementptr inbounds %"struct.arrow::Scalar", ptr %5, i32 0, i32 3
  %6 = load i8, ptr %is_valid, align 8
  %tobool = trunc i8 %6 to i1
  %cond = select i1 %tobool, i32 1, i32 2
  store i32 %cond, ptr %retval, align 4
  br label %return

if.else:                                          ; preds = %if.end4
  %7 = load ptr, ptr %value.addr, align 8
  %array = getelementptr inbounds %"struct.arrow::compute::ExecValue", ptr %7, i32 0, i32 0
  store ptr %array, ptr %arr, align 8
  %8 = load ptr, ptr %arr, align 8
  %null_count = getelementptr inbounds %"struct.arrow::ArraySpan", ptr %8, i32 0, i32 2
  %9 = load i64, ptr %null_count, align 8
  %cmp7 = icmp eq i64 %9, 0
  br i1 %cmp7, label %if.then9, label %lor.lhs.false

lor.lhs.false:                                    ; preds = %if.else
  %10 = load ptr, ptr %arr, align 8
  %buffers = getelementptr inbounds %"struct.arrow::ArraySpan", ptr %10, i32 0, i32 4
  %arrayidx = getelementptr inbounds [3 x %"struct.arrow::BufferSpan"], ptr %buffers, i64 0, i64 0
  %data = getelementptr inbounds %"struct.arrow::BufferSpan", ptr %arrayidx, i32 0, i32 0
  %11 = load ptr, ptr %data, align 8
  %cmp8 = icmp eq ptr %11, null
  br i1 %cmp8, label %if.then9, label %if.end10

if.then9:                                         ; preds = %lor.lhs.false, %if.else
  store i32 1, ptr %retval, align 4
  br label %return

if.end10:                                         ; preds = %lor.lhs.false
  %12 = load ptr, ptr %arr, align 8
  %null_count11 = getelementptr inbounds %"struct.arrow::ArraySpan", ptr %12, i32 0, i32 2
  %13 = load i64, ptr %null_count11, align 8
  %14 = load ptr, ptr %arr, align 8
  %length = getelementptr inbounds %"struct.arrow::ArraySpan", ptr %14, i32 0, i32 1
  %15 = load i64, ptr %length, align 8
  %cmp12 = icmp eq i64 %13, %15
  br i1 %cmp12, label %if.then13, label %if.end14

if.then13:                                        ; preds = %if.end10
  store i32 2, ptr %retval, align 4
  br label %return

if.end14:                                         ; preds = %if.end10
  br label %if.end15

if.end15:                                         ; preds = %if.end14
  store i32 0, ptr %retval, align 4
  br label %return

return:                                           ; preds = %if.end15, %if.then13, %if.then9, %if.then6, %if.then3, %if.then
  %16 = load i32, ptr %retval, align 4
  ret i32 %16
}