; Function Attrs: mustprogress nofree norecurse nosync nounwind willreturn memory(read, inaccessiblemem: none) uwtable
define internal fastcc noundef i32 @_ZN5arrow7compute6detail12_GLOBAL__N_118NullGeneralization3GetERKNS0_9ExecValueE(ptr nocapture noundef nonnull readonly align 8 dereferenceable(136) %value) unnamed_addr #6 align 2 {
entry:
  %scalar.i.i = getelementptr inbounds i8, ptr %value, i64 128
  %0 = load ptr, ptr %scalar.i.i, align 8
  %cmp.i.i = icmp eq ptr %0, null
  %type2.i = getelementptr inbounds i8, ptr %0, i64 24
  %retval.0.in.i = select i1 %cmp.i.i, ptr %value, ptr %type2.i
  %retval.0.i = load ptr, ptr %retval.0.in.i, align 8
  %id_.i = getelementptr inbounds i8, ptr %retval.0.i, i64 40
  %1 = load i32, ptr %id_.i, align 8
  switch i32 %1, label %if.end4 [
    i32 0, label %return
    i32 38, label %return.fold.split
    i32 28, label %return.fold.split
    i32 27, label %return.fold.split
  ]

if.end4:                                          ; preds = %entry
  br i1 %cmp.i.i, label %if.else, label %if.then6

if.then6:                                         ; preds = %if.end4
  %is_valid = getelementptr inbounds i8, ptr %0, i64 40
  %2 = load i8, ptr %is_valid, align 8
  %3 = and i8 %2, 1
  %tobool.not = icmp eq i8 %3, 0
  %cond = select i1 %tobool.not, i32 2, i32 1
  br label %return

if.else:                                          ; preds = %if.end4
  %null_count = getelementptr inbounds i8, ptr %value, i64 16
  %4 = load i64, ptr %null_count, align 8
  %cmp7 = icmp eq i64 %4, 0
  %buffers = getelementptr inbounds i8, ptr %value, i64 32
  %5 = load ptr, ptr %buffers, align 8
  %cmp8 = icmp eq ptr %5, null
  %or.cond = select i1 %cmp7, i1 true, i1 %cmp8
  br i1 %or.cond, label %return, label %if.end10

if.end10:                                         ; preds = %if.else
  %length = getelementptr inbounds i8, ptr %value, i64 8
  %6 = load i64, ptr %length, align 8
  %cmp12 = icmp eq i64 %4, %6
  %. = select i1 %cmp12, i32 2, i32 0
  br label %return

return.fold.split:                                ; preds = %entry, %entry, %entry
  br label %return

return:                                           ; preds = %entry, %return.fold.split, %if.end10, %if.else, %if.then6
  %retval.0 = phi i32 [ %cond, %if.then6 ], [ 2, %entry ], [ 1, %if.else ], [ %., %if.end10 ], [ 1, %return.fold.split ]
  ret i32 %retval.0
}